Certificate:
    Data:
        Version: 3 (0x2)
        Serial Number:
            c3:9d:27:06:4a:d0:72:42:89:ee:38:3c:79:e0:12:f7
        Signature Algorithm: sha256WithRSAEncryption
        Issuer: CN=Easy-RSA CA
        Validity
            Not Before: May 25 07:39:37 2023 GMT
            Not After : Aug 27 07:39:37 2025 GMT
        Subject: CN=client2.domain.tld
        Subject Public Key Info:
            Public Key Algorithm: rsaEncryption
                RSA Public-Key: (2048 bit)
                Modulus:
                    00:a2:a3:48:5d:fe:18:f4:a4:85:15:0a:a8:1d:c0:
                    76:33:d2:63:35:5e:14:14:84:3c:73:54:64:4b:40:
                    85:96:39:50:ce:c1:a7:d3:81:af:a9:0a:6e:89:fb:
                    a3:7f:2b:93:9a:24:fc:42:50:3a:1d:d2:7f:5a:db:
                    92:7e:33:e6:d4:e5:a5:30:ea:44:93:de:52:2c:8b:
                    6e:0d:c3:e0:63:92:c4:1e:45:0c:6c:75:1b:cc:26:
                    04:d7:33:b5:d7:3f:c7:6c:f7:b0:fb:23:22:7e:b2:
                    50:64:aa:4f:81:fa:65:3a:2e:98:84:61:89:79:e5:
                    1c:e4:00:0a:c9:ba:bb:2c:89:31:ab:9d:fb:1b:5f:
                    84:85:0d:78:6c:7e:7d:b9:9e:26:41:6a:ab:f2:90:
                    e3:6e:79:09:f3:fd:a2:a2:62:ec:22:c3:78:0e:6f:
                    de:8b:af:86:23:68:a6:e4:8e:59:55:90:a2:ba:e6:
                    b3:b6:20:41:04:9b:e9:51:f5:2e:32:db:e2:c2:26:
                    f8:39:21:c2:dc:b3:45:16:fe:fc:91:c0:a8:8c:63:
                    2c:6b:1a:d0:f0:4e:5d:c2:27:12:57:2f:0a:f9:e2:
                    ff:11:cc:3b:99:f3:05:45:aa:77:1e:43:b7:89:cb:
                    aa:a0:59:a1:cd:16:e4:cc:a3:5b:5a:fb:78:08:1b:
                    ec:f1
                Exponent: 65537 (0x10001)
        X509v3 extensions:
            X509v3 Basic Constraints: 
                CA:FALSE
            X509v3 Subject Key Identifier: 
                FF:27:0E:AB:ED:7D:49:67:F6:2C:D1:0D:AC:D9:1B:C7:97:27:23:54
            X509v3 Authority Key Identifier: 
                keyid:A2:D7:FD:43:5C:C4:C4:EE:6C:DA:BD:49:9E:7E:5A:8A:5D:00:B8:5A
                DirName:/CN=Easy-RSA CA
                serial:55:65:B9:10:60:1F:EB:E9:9D:44:82:C9:40:EA:C0:76:E8:D7:9B:6C

            X509v3 Extended Key Usage: 
                TLS Web Client Authentication
            X509v3 Key Usage: 
                Digital Signature
    Signature Algorithm: sha256WithRSAEncryption
         64:62:12:07:c1:e2:a9:0d:2f:08:76:89:1a:27:b7:d6:33:de:
         35:c4:cb:cf:dd:cc:40:8e:e8:b8:03:92:72:5a:33:13:c7:97:
         56:21:75:42:67:a2:32:87:82:f1:16:ea:e5:1f:d3:b0:b0:9c:
         a0:c7:c5:19:0a:bc:3d:00:a6:d9:73:85:6e:7c:b3:cf:fe:42:
         3e:31:97:75:92:02:92:79:b2:01:ba:ac:93:79:56:fb:21:09:
         39:b4:e4:d7:97:24:5e:60:dd:da:a2:54:de:50:42:84:60:cf:
         3e:5e:72:0b:3f:bd:0c:16:58:8a:91:ea:60:7c:ff:34:53:f0:
         a4:58:2e:87:00:29:e2:36:ff:be:52:98:f4:0b:b3:9a:62:63:
         73:c6:05:42:64:23:3a:ce:8d:81:3b:ca:34:d3:d4:58:19:6a:
         c5:96:82:08:c0:fa:0c:10:96:47:9b:47:4c:ae:9c:4b:bb:09:
         2e:52:18:24:e2:cb:75:95:52:0a:fb:81:f0:f4:03:2a:03:30:
         a6:86:30:d8:d0:26:86:43:1b:9a:2b:04:78:7e:e9:1d:57:36:
         f9:e2:23:f6:3a:27:0a:9f:bd:c9:34:d1:04:2f:56:2b:7d:5b:
         64:19:65:79:fb:81:6e:85:6a:9b:a2:9b:f7:5a:d6:97:8d:a5:
         cf:86:33:06
-----BEGIN CERTIFICATE-----
MIIDYTCCAkmgAwIBAgIRAMOdJwZK0HJCie44PHngEvcwDQYJKoZIhvcNAQELBQAw
FjEUMBIGA1UEAwwLRWFzeS1SU0EgQ0EwHhcNMjMwNTI1MDczOTM3WhcNMjUwODI3
MDczOTM3WjAdMRswGQYDVQQDDBJjbGllbnQyLmRvbWFpbi50bGQwggEiMA0GCSqG
SIb3DQEBAQUAA4IBDwAwggEKAoIBAQCio0hd/hj0pIUVCqgdwHYz0mM1XhQUhDxz
VGRLQIWWOVDOwafTga+pCm6J+6N/K5OaJPxCUDod0n9a25J+M+bU5aUw6kST3lIs
i24Nw+BjksQeRQxsdRvMJgTXM7XXP8ds97D7IyJ+slBkqk+B+mU6LpiEYYl55Rzk
AArJurssiTGrnfsbX4SFDXhsfn25niZBaqvykONueQnz/aKiYuwiw3gOb96Lr4Yj
aKbkjllVkKK65rO2IEEEm+lR9S4y2+LCJvg5IcLcs0UW/vyRwKiMYyxrGtDwTl3C
JxJXLwr54v8RzDuZ8wVFqnceQ7eJy6qgWaHNFuTMo1ta+3gIG+zxAgMBAAGjgaIw
gZ8wCQYDVR0TBAIwADAdBgNVHQ4EFgQU/ycOq+19SWf2LNENrNkbx5cnI1QwUQYD
VR0jBEowSIAUotf9Q1zExO5s2r1Jnn5ail0AuFqhGqQYMBYxFDASBgNVBAMMC0Vh
c3ktUlNBIENBghRVZbkQYB/r6Z1EgslA6sB26NebbDATBgNVHSUEDDAKBggrBgEF
BQcDAjALBgNVHQ8EBAMCB4AwDQYJKoZIhvcNAQELBQADggEBAGRiEgfB4qkNLwh2
iRont9Yz3jXEy8/dzECO6LgDknJaMxPHl1YhdUJnojKHgvEW6uUf07CwnKDHxRkK
vD0AptlzhW58s8/+Qj4xl3WSApJ5sgG6rJN5VvshCTm05NeXJF5g3dqiVN5QQoRg
zz5ecgs/vQwWWIqR6mB8/zRT8KRYLocAKeI2/75SmPQLs5piY3PGBUJkIzrOjYE7
yjTT1FgZasWWggjA+gwQlkebR0yunEu7CS5SGCTiy3WVUgr7gfD0AyoDMKaGMNjQ
JoZDG5orBHh+6R1XNvniI/Y6Jwqfvck00QQvVit9W2QZZXn7gW6Fapuim/da1peN
pc+GMwY=
-----END CERTIFICATE-----
