Certificate:
    Data:
        Version: 3 (0x2)
        Serial Number:
            06:7b:7f:8f:cb:d9:d3:9f:c6:bb:1d:01:ef:76:a9:e9
        Signature Algorithm: sha256WithRSAEncryption
        Issuer: CN=Easy-RSA CA
        Validity
            Not Before: May 24 08:49:17 2023 GMT
            Not After : Aug 26 08:49:17 2025 GMT
        Subject: CN=client1.domain.tld
        Subject Public Key Info:
            Public Key Algorithm: rsaEncryption
                RSA Public-Key: (2048 bit)
                Modulus:
                    00:bf:d4:c5:6b:ef:7b:58:0c:1b:3f:be:20:01:5d:
                    5a:46:9a:e9:a9:f7:31:79:02:03:18:a0:c9:42:37:
                    be:59:03:ab:35:17:b2:39:58:28:e4:7c:9b:cf:22:
                    b8:87:49:53:c8:18:5d:43:3b:06:74:a2:45:27:8c:
                    d8:f9:b8:2a:da:50:df:6b:d8:a1:f0:7d:76:89:b3:
                    6c:f1:14:c6:97:a2:9d:40:10:bd:26:e9:f8:fa:47:
                    4f:ab:63:51:75:23:10:bb:d1:37:bd:43:97:1a:ff:
                    e1:3e:ff:b0:29:4d:ce:79:76:79:16:ed:a6:30:31:
                    cb:6a:59:b0:aa:80:13:7e:15:fb:26:9b:4f:85:c5:
                    0a:34:03:ee:cc:67:7f:11:5e:83:3f:fa:82:f8:0e:
                    d6:b3:6b:cd:57:19:97:13:1f:a9:c0:67:eb:9d:2b:
                    77:c5:6e:e1:6d:03:6b:20:1f:44:a2:da:64:1e:e7:
                    ae:b8:29:b1:36:31:76:7b:e6:97:b9:22:22:4e:ac:
                    cf:f0:c5:77:d8:ec:7a:07:42:f2:f1:a8:05:51:19:
                    4e:e6:d8:95:1b:30:58:80:ec:bb:f8:53:54:03:a7:
                    dc:e0:a5:f9:d8:a8:f0:15:83:0b:2f:65:81:4c:a7:
                    f3:43:34:11:f5:b5:da:03:ca:38:52:ac:68:ee:6a:
                    9c:2b
                Exponent: 65537 (0x10001)
        X509v3 extensions:
            X509v3 Basic Constraints: 
                CA:FALSE
            X509v3 Subject Key Identifier: 
                A2:40:CB:3D:F4:F0:63:76:06:A7:01:24:41:C5:6C:C2:97:F8:89:8B
            X509v3 Authority Key Identifier: 
                keyid:93:31:4F:2A:E7:BF:B2:63:36:26:70:2C:EE:22:3D:1B:4A:FF:B8:7D
                DirName:/CN=Easy-RSA CA
                serial:60:E7:18:B5:2F:79:DF:CE:B0:C9:04:DD:86:F5:84:44:FF:B0:4E:1C

            X509v3 Extended Key Usage: 
                TLS Web Client Authentication
            X509v3 Key Usage: 
                Digital Signature
    Signature Algorithm: sha256WithRSAEncryption
         69:dd:5f:72:71:0c:0e:f1:7e:bf:cf:20:02:ce:e2:2a:37:9e:
         f4:6d:cf:b4:f9:ee:61:f5:38:b7:b3:b0:e2:d2:df:53:a6:40:
         41:f0:70:09:30:11:08:30:94:99:8d:6b:28:f7:03:47:fd:50:
         ef:19:bc:f7:e6:a9:04:5a:bd:5f:8f:e9:35:89:a4:f1:37:2e:
         5d:23:5b:bc:20:37:34:c0:a2:67:bf:46:94:8a:52:64:20:49:
         92:2a:66:28:24:cf:4e:f2:09:17:54:d2:38:7a:03:ad:c6:db:
         f1:9b:ef:ee:e0:67:fe:c5:fe:a2:4f:1c:ff:da:ee:6b:3d:f9:
         78:1a:30:1b:71:d3:96:02:b2:3b:40:2b:a2:72:99:9d:83:f2:
         77:db:67:62:35:f2:44:d0:05:52:96:f4:97:87:41:b0:2a:65:
         22:f7:95:4f:1e:2c:06:53:09:1e:3d:20:0f:7d:2b:19:fa:a1:
         60:11:58:89:53:de:a5:e9:48:89:5c:91:72:c3:b8:2b:24:da:
         05:c6:4e:6d:6d:de:0e:fe:74:98:43:a9:0a:d7:37:3c:33:f8:
         1e:0b:cc:6f:00:b7:a6:f8:57:df:05:e7:48:46:ec:4b:57:45:
         d7:df:63:7f:6d:90:fb:55:79:f9:95:42:fd:e9:6f:11:a4:45:
         3c:d6:24:fc
-----BEGIN CERTIFICATE-----
MIIDYDCCAkigAwIBAgIQBnt/j8vZ05/Gux0B73ap6TANBgkqhkiG9w0BAQsFADAW
MRQwEgYDVQQDDAtFYXN5LVJTQSBDQTAeFw0yMzA1MjQwODQ5MTdaFw0yNTA4MjYw
ODQ5MTdaMB0xGzAZBgNVBAMMEmNsaWVudDEuZG9tYWluLnRsZDCCASIwDQYJKoZI
hvcNAQEBBQADggEPADCCAQoCggEBAL/UxWvve1gMGz++IAFdWkaa6an3MXkCAxig
yUI3vlkDqzUXsjlYKOR8m88iuIdJU8gYXUM7BnSiRSeM2Pm4KtpQ32vYofB9domz
bPEUxpeinUAQvSbp+PpHT6tjUXUjELvRN71Dlxr/4T7/sClNznl2eRbtpjAxy2pZ
sKqAE34V+yabT4XFCjQD7sxnfxFegz/6gvgO1rNrzVcZlxMfqcBn650rd8Vu4W0D
ayAfRKLaZB7nrrgpsTYxdnvml7kiIk6sz/DFd9jsegdC8vGoBVEZTubYlRswWIDs
u/hTVAOn3OCl+dio8BWDCy9lgUyn80M0EfW12gPKOFKsaO5qnCsCAwEAAaOBojCB
nzAJBgNVHRMEAjAAMB0GA1UdDgQWBBSiQMs99PBjdganASRBxWzCl/iJizBRBgNV
HSMESjBIgBSTMU8q57+yYzYmcCzuIj0bSv+4faEapBgwFjEUMBIGA1UEAwwLRWFz
eS1SU0EgQ0GCFGDnGLUved/OsMkE3Yb1hET/sE4cMBMGA1UdJQQMMAoGCCsGAQUF
BwMCMAsGA1UdDwQEAwIHgDANBgkqhkiG9w0BAQsFAAOCAQEAad1fcnEMDvF+v88g
As7iKjee9G3PtPnuYfU4t7Ow4tLfU6ZAQfBwCTARCDCUmY1rKPcDR/1Q7xm89+ap
BFq9X4/pNYmk8TcuXSNbvCA3NMCiZ79GlIpSZCBJkipmKCTPTvIJF1TSOHoDrcbb
8Zvv7uBn/sX+ok8c/9ruaz35eBowG3HTlgKyO0AronKZnYPyd9tnYjXyRNAFUpb0
l4dBsCplIveVTx4sBlMJHj0gD30rGfqhYBFYiVPepelIiVyRcsO4KyTaBcZObW3e
Dv50mEOpCtc3PDP4HgvMbwC3pvhX3wXnSEbsS1dF199jf22Q+1V5+ZVC/elvEaRF
PNYk/A==
-----END CERTIFICATE-----
