Certificate:
    Data:
        Version: 3 (0x2)
        Serial Number:
            ce:72:d1:03:48:3d:be:cf:22:51:8d:12:a1:ca:65:a1
        Signature Algorithm: sha256WithRSAEncryption
        Issuer: CN=Easy-RSA CA
        Validity
            Not Before: May 25 09:29:55 2023 GMT
            Not After : Aug 27 09:29:55 2025 GMT
        Subject: CN=client2.domain.tld
        Subject Public Key Info:
            Public Key Algorithm: rsaEncryption
                RSA Public-Key: (2048 bit)
                Modulus:
                    00:ce:4a:ef:45:75:24:ea:00:ba:8c:e4:e9:4d:b5:
                    64:54:59:03:50:8b:ee:86:7c:b2:09:fb:42:9e:3e:
                    68:79:80:c0:a9:94:b7:86:53:69:5f:a0:5a:82:7d:
                    9a:05:f3:e8:bb:f6:80:ab:62:ce:5f:43:c7:d7:c0:
                    18:e8:da:d6:ae:c6:61:56:a6:a6:44:3f:58:42:d3:
                    bb:9b:6b:5b:13:d7:b2:ca:f6:6d:e7:d4:e6:60:23:
                    4b:99:0a:4d:7d:18:a4:8b:8c:14:1e:c6:5e:47:ef:
                    61:dd:e7:a0:33:a4:fe:b4:4a:93:52:49:99:6e:35:
                    76:80:59:ee:05:d1:c6:93:ed:a0:db:90:5f:0b:12:
                    90:02:92:b0:82:1b:61:88:fe:98:8e:de:eb:0c:c9:
                    ec:e8:d1:d7:93:6d:7c:b9:ac:ec:4c:75:f7:0f:20:
                    14:b7:2f:2f:87:3e:a1:4d:6e:61:f5:2c:fa:5d:eb:
                    a1:80:eb:6e:4a:aa:62:5f:17:48:4a:3d:94:3b:22:
                    4b:98:de:9b:b2:87:c9:01:9e:8b:9c:71:58:4e:39:
                    5b:b3:f7:03:0d:f2:ae:52:85:55:67:49:5e:eb:32:
                    f1:81:67:99:71:eb:45:eb:e6:18:c0:2c:3a:d2:51:
                    f2:6f:20:ce:30:6d:a2:3d:bf:f4:44:b3:43:96:10:
                    5b:23
                Exponent: 65537 (0x10001)
        X509v3 extensions:
            X509v3 Basic Constraints: 
                CA:FALSE
            X509v3 Subject Key Identifier: 
                96:DC:5A:F0:CA:61:A5:E8:E5:42:67:67:8A:65:A0:E4:1B:17:58:5D
            X509v3 Authority Key Identifier: 
                keyid:59:C0:45:B5:83:40:46:1F:B3:27:1E:4C:E9:1D:FF:47:1D:48:06:F7
                DirName:/CN=Easy-RSA CA
                serial:16:91:3D:F2:63:1A:D5:82:61:75:5D:E5:39:91:8A:FF:A9:6F:9F:52

            X509v3 Extended Key Usage: 
                TLS Web Client Authentication
            X509v3 Key Usage: 
                Digital Signature
    Signature Algorithm: sha256WithRSAEncryption
         16:cf:b5:e6:97:8e:40:24:6d:fb:71:ea:3f:ff:98:62:36:1e:
         d6:7e:c2:0b:a3:5c:0b:39:3c:f6:25:a4:87:c0:81:1c:de:a3:
         5b:ce:6f:0e:bb:82:d6:a0:07:76:60:34:dc:87:85:07:2f:39:
         af:bf:36:7e:32:72:dc:f0:d1:ab:db:9a:89:14:f4:21:23:0e:
         a0:14:84:0c:07:f8:10:76:a9:2b:3f:23:86:31:70:f0:ed:18:
         e5:2f:62:7c:2c:4b:66:42:bc:97:7b:d0:a0:6d:1a:65:c7:ed:
         a1:15:e0:87:55:94:ba:97:72:38:12:4d:c9:ae:dd:81:cd:17:
         3f:75:97:62:34:de:4a:ad:f7:58:74:43:05:5d:c6:63:a7:fb:
         ed:fd:2d:6f:22:b0:1f:1b:b4:dc:19:0b:b9:77:40:57:03:00:
         20:1c:f1:96:5f:2c:56:64:04:80:1d:3c:87:ec:dd:99:19:48:
         f8:9f:9b:3f:8d:bf:2c:b2:f1:1c:4f:9b:db:50:fd:56:25:a0:
         15:4f:90:57:0f:2a:ba:09:40:9b:2d:3f:a5:11:65:be:17:35:
         ca:df:00:07:b6:c0:5d:6f:e0:76:31:c3:e5:f2:a4:7f:d0:9c:
         5e:5a:9f:30:0e:75:5f:65:ba:40:ee:d5:37:c2:74:85:6e:df:
         6f:70:61:1f
-----BEGIN CERTIFICATE-----
MIIDYTCCAkmgAwIBAgIRAM5y0QNIPb7PIlGNEqHKZaEwDQYJKoZIhvcNAQELBQAw
FjEUMBIGA1UEAwwLRWFzeS1SU0EgQ0EwHhcNMjMwNTI1MDkyOTU1WhcNMjUwODI3
MDkyOTU1WjAdMRswGQYDVQQDDBJjbGllbnQyLmRvbWFpbi50bGQwggEiMA0GCSqG
SIb3DQEBAQUAA4IBDwAwggEKAoIBAQDOSu9FdSTqALqM5OlNtWRUWQNQi+6GfLIJ
+0KePmh5gMCplLeGU2lfoFqCfZoF8+i79oCrYs5fQ8fXwBjo2tauxmFWpqZEP1hC
07uba1sT17LK9m3n1OZgI0uZCk19GKSLjBQexl5H72Hd56AzpP60SpNSSZluNXaA
We4F0caT7aDbkF8LEpACkrCCG2GI/piO3usMyezo0deTbXy5rOxMdfcPIBS3Ly+H
PqFNbmH1LPpd66GA625KqmJfF0hKPZQ7IkuY3puyh8kBnouccVhOOVuz9wMN8q5S
hVVnSV7rMvGBZ5lx60Xr5hjALDrSUfJvIM4wbaI9v/REs0OWEFsjAgMBAAGjgaIw
gZ8wCQYDVR0TBAIwADAdBgNVHQ4EFgQUltxa8MphpejlQmdnimWg5BsXWF0wUQYD
VR0jBEowSIAUWcBFtYNARh+zJx5M6R3/Rx1IBvehGqQYMBYxFDASBgNVBAMMC0Vh
c3ktUlNBIENBghQWkT3yYxrVgmF1XeU5kYr/qW+fUjATBgNVHSUEDDAKBggrBgEF
BQcDAjALBgNVHQ8EBAMCB4AwDQYJKoZIhvcNAQELBQADggEBABbPteaXjkAkbftx
6j//mGI2HtZ+wgujXAs5PPYlpIfAgRzeo1vObw67gtagB3ZgNNyHhQcvOa+/Nn4y
ctzw0avbmokU9CEjDqAUhAwH+BB2qSs/I4YxcPDtGOUvYnwsS2ZCvJd70KBtGmXH
7aEV4IdVlLqXcjgSTcmu3YHNFz91l2I03kqt91h0QwVdxmOn++39LW8isB8btNwZ
C7l3QFcDACAc8ZZfLFZkBIAdPIfs3ZkZSPifmz+Nvyyy8RxPm9tQ/VYloBVPkFcP
KroJQJstP6URZb4XNcrfAAe2wF1v4HYxw+XypH/QnF5anzAOdV9lukDu1TfCdIVu
329wYR8=
-----END CERTIFICATE-----
