Certificate:
    Data:
        Version: 3 (0x2)
        Serial Number:
            6d:61:ae:cd:af:9f:19:8e:db:a0:84:e9:5d:17:ed:c5
        Signature Algorithm: sha256WithRSAEncryption
        Issuer: CN=Easy-RSA CA
        Validity
            Not Before: May 25 07:39:36 2023 GMT
            Not After : Aug 27 07:39:36 2025 GMT
        Subject: CN=client1.domain.tld
        Subject Public Key Info:
            Public Key Algorithm: rsaEncryption
                RSA Public-Key: (2048 bit)
                Modulus:
                    00:ce:1e:e7:3e:f9:04:22:50:69:c8:3e:b6:a9:be:
                    86:00:fc:a4:e9:e6:9d:73:84:ed:6b:33:51:06:28:
                    e3:1e:cf:90:37:dc:3c:6b:a1:0d:df:30:76:ea:b9:
                    ab:65:bf:eb:9d:92:d2:4b:16:28:ca:ad:6b:3b:ff:
                    c9:07:4d:10:c0:67:a2:e5:91:8b:ca:31:54:51:cf:
                    f6:c3:19:5c:d6:39:74:69:87:7b:c4:71:d3:d0:27:
                    c8:e4:15:9f:02:29:c8:bd:59:20:f4:a3:75:f1:37:
                    2c:e7:84:de:bb:c8:b8:33:b5:c3:ba:a5:f5:23:fc:
                    9d:99:4c:ab:f8:21:4e:17:db:36:f0:b4:e4:d2:31:
                    1a:39:ed:c3:1a:72:a7:82:5b:4f:3e:01:ff:d6:b6:
                    67:05:00:b6:89:a5:35:6f:af:ea:10:76:fe:9f:1f:
                    08:8f:93:94:bc:75:f9:27:3e:a1:0e:95:60:1c:5a:
                    ec:aa:00:d3:71:73:87:2f:15:07:ca:e9:c8:56:23:
                    f5:c8:47:2c:d9:bb:1c:ee:1f:71:29:f4:51:ff:0b:
                    37:3d:e4:c8:6a:10:32:4c:55:98:25:f2:ca:67:d6:
                    c9:fb:f2:b4:00:a5:da:82:21:96:6e:ce:2a:b4:66:
                    3f:05:1e:4c:41:ab:68:cc:3b:8a:d2:61:cf:07:b3:
                    87:b1
                Exponent: 65537 (0x10001)
        X509v3 extensions:
            X509v3 Basic Constraints: 
                CA:FALSE
            X509v3 Subject Key Identifier: 
                15:17:FB:41:3E:33:76:CD:F2:46:75:7D:42:DC:A3:86:E1:F9:7D:74
            X509v3 Authority Key Identifier: 
                keyid:A2:D7:FD:43:5C:C4:C4:EE:6C:DA:BD:49:9E:7E:5A:8A:5D:00:B8:5A
                DirName:/CN=Easy-RSA CA
                serial:55:65:B9:10:60:1F:EB:E9:9D:44:82:C9:40:EA:C0:76:E8:D7:9B:6C

            X509v3 Extended Key Usage: 
                TLS Web Client Authentication
            X509v3 Key Usage: 
                Digital Signature
    Signature Algorithm: sha256WithRSAEncryption
         5f:9e:cb:55:b3:90:fb:2a:f8:b2:75:b5:89:88:69:9a:04:cf:
         3d:f8:d2:2c:17:07:fa:64:7f:33:c0:14:35:cb:08:21:14:a6:
         7d:d3:33:fa:f3:f8:7e:7e:96:87:06:43:9a:0c:0a:4c:37:a0:
         6e:43:46:18:10:37:e0:c4:45:22:e6:89:13:4c:47:5e:bd:de:
         6a:38:1a:dc:e0:97:11:02:30:a5:8a:a4:f5:07:1d:f9:49:11:
         f3:1e:1f:32:91:5a:06:1b:0d:01:79:7f:62:8b:79:be:12:33:
         09:b2:b3:04:b2:d1:5c:dd:c1:06:bd:92:b5:00:4a:5c:55:d8:
         5b:e1:4c:4d:98:11:16:c5:79:3b:d6:a1:96:dc:52:ad:e8:05:
         d9:bd:d4:8c:32:d5:55:88:f2:ae:13:05:49:2d:e2:77:ae:27:
         b1:25:07:e7:ec:0a:b4:19:0e:8e:ea:05:0e:5b:fe:5d:b9:87:
         eb:13:09:df:45:9d:90:bb:73:f8:2e:45:06:26:fb:89:8a:9c:
         cd:28:d5:05:be:af:f2:15:a3:b8:d3:fb:e9:8f:cd:1b:fc:1f:
         1d:f2:44:af:d8:28:ce:2b:97:34:fa:eb:15:3e:6c:86:f9:29:
         52:2f:1d:30:17:f4:11:7c:c1:a8:2c:a3:89:29:90:16:1e:08:
         98:f9:97:ea
-----BEGIN CERTIFICATE-----
MIIDYDCCAkigAwIBAgIQbWGuza+fGY7boITpXRftxTANBgkqhkiG9w0BAQsFADAW
MRQwEgYDVQQDDAtFYXN5LVJTQSBDQTAeFw0yMzA1MjUwNzM5MzZaFw0yNTA4Mjcw
NzM5MzZaMB0xGzAZBgNVBAMMEmNsaWVudDEuZG9tYWluLnRsZDCCASIwDQYJKoZI
hvcNAQEBBQADggEPADCCAQoCggEBAM4e5z75BCJQacg+tqm+hgD8pOnmnXOE7Wsz
UQYo4x7PkDfcPGuhDd8wduq5q2W/652S0ksWKMqtazv/yQdNEMBnouWRi8oxVFHP
9sMZXNY5dGmHe8Rx09AnyOQVnwIpyL1ZIPSjdfE3LOeE3rvIuDO1w7ql9SP8nZlM
q/ghThfbNvC05NIxGjntwxpyp4JbTz4B/9a2ZwUAtomlNW+v6hB2/p8fCI+TlLx1
+Sc+oQ6VYBxa7KoA03Fzhy8VB8rpyFYj9chHLNm7HO4fcSn0Uf8LNz3kyGoQMkxV
mCXyymfWyfvytACl2oIhlm7OKrRmPwUeTEGraMw7itJhzwezh7ECAwEAAaOBojCB
nzAJBgNVHRMEAjAAMB0GA1UdDgQWBBQVF/tBPjN2zfJGdX1C3KOG4fl9dDBRBgNV
HSMESjBIgBSi1/1DXMTE7mzavUmeflqKXQC4WqEapBgwFjEUMBIGA1UEAwwLRWFz
eS1SU0EgQ0GCFFVluRBgH+vpnUSCyUDqwHbo15tsMBMGA1UdJQQMMAoGCCsGAQUF
BwMCMAsGA1UdDwQEAwIHgDANBgkqhkiG9w0BAQsFAAOCAQEAX57LVbOQ+yr4snW1
iYhpmgTPPfjSLBcH+mR/M8AUNcsIIRSmfdMz+vP4fn6WhwZDmgwKTDegbkNGGBA3
4MRFIuaJE0xHXr3eajga3OCXEQIwpYqk9Qcd+UkR8x4fMpFaBhsNAXl/Yot5vhIz
CbKzBLLRXN3BBr2StQBKXFXYW+FMTZgRFsV5O9ahltxSregF2b3UjDLVVYjyrhMF
SS3id64nsSUH5+wKtBkOjuoFDlv+XbmH6xMJ30WdkLtz+C5FBib7iYqczSjVBb6v
8hWjuNP76Y/NG/wfHfJEr9goziuXNPrrFT5shvkpUi8dMBf0EXzBqCyjiSmQFh4I
mPmX6g==
-----END CERTIFICATE-----
