Certificate:
    Data:
        Version: 3 (0x2)
        Serial Number:
            cd:43:5a:d2:af:66:87:a7:84:f6:d0:55:bd:84:33:55
        Signature Algorithm: sha256WithRSAEncryption
        Issuer: CN=Easy-RSA CA
        Validity
            Not Before: May 25 09:29:55 2023 GMT
            Not After : Aug 27 09:29:55 2025 GMT
        Subject: CN=client1.domain.tld
        Subject Public Key Info:
            Public Key Algorithm: rsaEncryption
                RSA Public-Key: (2048 bit)
                Modulus:
                    00:91:ac:2f:81:d5:d4:09:c8:6e:9d:fb:95:54:a7:
                    4f:b3:3e:e8:ce:6d:e1:03:fb:a0:43:36:3e:87:a2:
                    a4:d8:0b:34:7d:eb:7a:69:27:99:db:0d:4b:35:8a:
                    08:8f:10:d6:2c:20:a2:ed:54:6a:22:5b:6f:c9:8b:
                    81:d4:73:d7:b7:3c:ef:4f:c6:9b:61:7e:70:9b:85:
                    ce:4d:18:30:f9:92:eb:09:be:26:e9:4d:75:e6:ce:
                    90:99:6f:5b:a9:38:3d:d2:0c:46:80:39:ce:d0:e7:
                    d7:07:32:8f:37:0e:f2:b9:79:95:7c:32:45:9e:64:
                    35:82:df:da:1e:1c:bf:e7:f4:4b:cf:31:71:dc:b1:
                    a1:d3:36:2b:ac:29:bf:1f:e0:5c:7e:6b:f8:21:a2:
                    93:43:ba:7b:c7:5d:ad:b1:d2:4e:a0:32:83:28:f2:
                    48:85:26:7b:1e:df:86:5b:3d:35:47:f5:f5:23:d3:
                    c0:8f:8d:b1:0e:7e:64:e3:f9:6a:62:f1:34:bb:a4:
                    3c:c7:0b:fd:5d:a9:e5:5a:be:99:58:25:c8:b0:60:
                    2f:0e:17:fa:4b:e5:57:1b:00:6a:dc:c2:82:aa:3c:
                    2a:19:7a:2f:da:64:0d:57:63:0d:6a:8b:ae:8f:05:
                    3a:56:cd:d8:36:3e:7c:af:23:f4:10:94:0e:f3:eb:
                    04:e7
                Exponent: 65537 (0x10001)
        X509v3 extensions:
            X509v3 Basic Constraints: 
                CA:FALSE
            X509v3 Subject Key Identifier: 
                2C:6E:B3:A0:58:86:07:CC:50:BF:9F:5F:B2:E3:61:30:E5:39:BA:3F
            X509v3 Authority Key Identifier: 
                keyid:59:C0:45:B5:83:40:46:1F:B3:27:1E:4C:E9:1D:FF:47:1D:48:06:F7
                DirName:/CN=Easy-RSA CA
                serial:16:91:3D:F2:63:1A:D5:82:61:75:5D:E5:39:91:8A:FF:A9:6F:9F:52

            X509v3 Extended Key Usage: 
                TLS Web Client Authentication
            X509v3 Key Usage: 
                Digital Signature
    Signature Algorithm: sha256WithRSAEncryption
         83:72:ab:1a:23:66:c8:da:ba:2b:8e:c2:c4:c5:5b:1c:db:70:
         2f:7d:1a:d5:fa:91:f8:6b:da:4f:40:dd:c0:d5:70:65:47:e2:
         6b:d0:88:f8:da:a0:08:27:59:b9:04:96:f0:84:bd:b9:b4:09:
         92:e1:4f:6c:b2:13:6e:f1:39:27:1c:3d:e3:f1:c3:fb:fe:6e:
         8d:60:3c:cc:fa:c9:9a:85:12:ff:8b:65:74:a8:e5:20:c4:f9:
         71:e6:5d:ce:97:7b:c1:1e:b4:a3:cb:15:d3:fa:45:88:2a:44:
         8d:24:37:6c:77:20:12:24:e1:0e:4e:ba:16:dc:f5:5b:4c:e8:
         96:50:1f:56:d5:b3:18:79:18:ac:92:cc:67:6a:16:a1:f5:19:
         34:d6:2e:f0:34:2c:66:24:73:7b:90:f0:37:01:65:27:c2:1d:
         5c:dc:58:c9:10:af:d6:94:b3:b2:0a:a8:10:b5:b0:cc:2e:ee:
         57:02:5a:51:cf:e4:e4:19:a0:6b:29:66:f9:f9:53:b7:11:df:
         49:28:9b:49:93:25:ff:66:f7:38:be:eb:5f:c4:83:7f:28:45:
         6c:cb:a1:27:5c:60:5c:87:9d:8f:e6:3f:a9:8b:e7:e0:22:78:
         47:a8:b1:88:61:ca:26:ca:31:89:75:ed:db:61:7f:04:a3:5e:
         56:db:26:ed
-----BEGIN CERTIFICATE-----
MIIDYTCCAkmgAwIBAgIRAM1DWtKvZoenhPbQVb2EM1UwDQYJKoZIhvcNAQELBQAw
FjEUMBIGA1UEAwwLRWFzeS1SU0EgQ0EwHhcNMjMwNTI1MDkyOTU1WhcNMjUwODI3
MDkyOTU1WjAdMRswGQYDVQQDDBJjbGllbnQxLmRvbWFpbi50bGQwggEiMA0GCSqG
SIb3DQEBAQUAA4IBDwAwggEKAoIBAQCRrC+B1dQJyG6d+5VUp0+zPujObeED+6BD
Nj6HoqTYCzR963ppJ5nbDUs1igiPENYsIKLtVGoiW2/Ji4HUc9e3PO9PxpthfnCb
hc5NGDD5kusJvibpTXXmzpCZb1upOD3SDEaAOc7Q59cHMo83DvK5eZV8MkWeZDWC
39oeHL/n9EvPMXHcsaHTNiusKb8f4Fx+a/ghopNDunvHXa2x0k6gMoMo8kiFJnse
34ZbPTVH9fUj08CPjbEOfmTj+Wpi8TS7pDzHC/1dqeVavplYJciwYC8OF/pL5Vcb
AGrcwoKqPCoZei/aZA1XYw1qi66PBTpWzdg2PnyvI/QQlA7z6wTnAgMBAAGjgaIw
gZ8wCQYDVR0TBAIwADAdBgNVHQ4EFgQULG6zoFiGB8xQv59fsuNhMOU5uj8wUQYD
VR0jBEowSIAUWcBFtYNARh+zJx5M6R3/Rx1IBvehGqQYMBYxFDASBgNVBAMMC0Vh
c3ktUlNBIENBghQWkT3yYxrVgmF1XeU5kYr/qW+fUjATBgNVHSUEDDAKBggrBgEF
BQcDAjALBgNVHQ8EBAMCB4AwDQYJKoZIhvcNAQELBQADggEBAINyqxojZsjauiuO
wsTFWxzbcC99GtX6kfhr2k9A3cDVcGVH4mvQiPjaoAgnWbkElvCEvbm0CZLhT2yy
E27xOSccPePxw/v+bo1gPMz6yZqFEv+LZXSo5SDE+XHmXc6Xe8EetKPLFdP6RYgq
RI0kN2x3IBIk4Q5Ouhbc9VtM6JZQH1bVsxh5GKySzGdqFqH1GTTWLvA0LGYkc3uQ
8DcBZSfCHVzcWMkQr9aUs7IKqBC1sMwu7lcCWlHP5OQZoGspZvn5U7cR30kom0mT
Jf9m9zi+61/Eg38oRWzLoSdcYFyHnY/mP6mL5+AieEeosYhhyibKMYl17dthfwSj
XlbbJu0=
-----END CERTIFICATE-----
