Certificate:
    Data:
        Version: 3 (0x2)
        Serial Number:
            61:97:86:24:12:b6:0c:68:4f:d8:f2:d7:29:44:bc:a6
        Signature Algorithm: sha256WithRSAEncryption
        Issuer: CN=Easy-RSA CA
        Validity
            Not Before: May 25 07:39:36 2023 GMT
            Not After : Aug 27 07:39:36 2025 GMT
        Subject: CN=server
        Subject Public Key Info:
            Public Key Algorithm: rsaEncryption
                RSA Public-Key: (2048 bit)
                Modulus:
                    00:9e:50:a6:dc:33:78:ab:fd:53:7a:e4:be:36:31:
                    34:7d:f4:13:55:4f:71:64:d5:27:3e:6c:4b:d5:c0:
                    4f:59:19:52:32:94:0f:b0:df:e2:2c:2b:68:81:21:
                    79:34:83:92:3a:14:26:45:c6:cb:ae:72:87:c1:df:
                    f1:05:54:cd:1a:0c:ef:87:e2:7b:41:b4:57:b7:8a:
                    24:80:8b:65:c7:a4:77:f1:9f:55:df:7e:08:c7:a1:
                    a0:9d:80:78:24:f6:5f:d0:1e:fa:80:33:c8:1d:95:
                    bf:19:03:7e:20:8b:3b:ec:ae:9d:95:00:61:6c:17:
                    e4:10:c6:cc:96:cf:d5:22:42:07:91:82:ba:e2:4a:
                    72:9b:cc:b6:a9:9e:52:4d:c6:14:ee:f1:ba:fd:df:
                    f1:98:20:e5:16:a9:27:2c:e0:64:2a:54:0b:a9:77:
                    b6:ac:30:3a:b0:01:26:8b:42:7b:e8:24:84:e8:31:
                    31:aa:e0:01:d3:1e:7b:e8:a5:eb:d5:1f:1c:f1:64:
                    5e:52:41:63:ba:cf:1c:1f:16:05:d8:72:96:20:cd:
                    25:fe:ea:a1:97:b4:2d:c3:19:d6:1b:ef:c8:5f:e4:
                    dc:cf:a1:4f:91:22:0d:5e:bf:1a:6f:75:3c:0e:f1:
                    e0:06:26:66:44:9e:72:cc:1c:1b:20:25:c5:a4:0d:
                    c4:e9
                Exponent: 65537 (0x10001)
        X509v3 extensions:
            X509v3 Basic Constraints: 
                CA:FALSE
            X509v3 Subject Key Identifier: 
                D8:29:CE:58:8C:DC:3B:70:2D:5E:08:D2:EF:05:C3:F3:AB:0E:96:FF
            X509v3 Authority Key Identifier: 
                keyid:A2:D7:FD:43:5C:C4:C4:EE:6C:DA:BD:49:9E:7E:5A:8A:5D:00:B8:5A
                DirName:/CN=Easy-RSA CA
                serial:55:65:B9:10:60:1F:EB:E9:9D:44:82:C9:40:EA:C0:76:E8:D7:9B:6C

            X509v3 Extended Key Usage: 
                TLS Web Server Authentication
            X509v3 Key Usage: 
                Digital Signature, Key Encipherment
            X509v3 Subject Alternative Name: 
                DNS:server
    Signature Algorithm: sha256WithRSAEncryption
         af:63:25:97:d4:4a:35:a1:fb:f4:6f:fc:3d:f6:9f:c5:76:83:
         13:d7:de:fc:7d:5d:4c:39:6d:f2:ea:5f:01:9f:35:8f:b4:cc:
         73:7d:b5:07:88:7a:ec:6a:a4:f7:24:54:1c:8b:f2:7c:d8:b1:
         06:20:aa:29:0a:12:a6:86:9a:7b:aa:73:59:7f:48:22:d0:2d:
         ed:a9:f9:b6:99:10:c7:81:db:a9:89:a5:20:35:51:01:73:5e:
         42:02:dc:e5:fe:3b:22:7b:1e:fa:91:dc:cd:7f:be:ec:db:84:
         c9:47:83:64:e7:15:2d:f5:f5:0e:6a:a8:30:dc:1f:b4:2c:69:
         7f:8c:bd:6d:a4:a3:f6:8b:b5:ca:ba:0e:ea:a1:ae:5c:9b:20:
         c7:7f:b4:11:91:33:c4:6d:f1:5c:c5:c1:4d:59:93:de:59:9f:
         72:59:7d:df:70:0f:b8:40:dd:b0:14:00:32:63:09:3a:86:06:
         a2:aa:28:f7:58:e3:63:92:7f:c1:ef:0a:92:83:3f:d3:9e:ae:
         68:c6:f9:ac:c1:f8:80:09:d3:de:d2:18:5a:ca:2f:41:9f:52:
         ad:c5:ee:71:9e:04:82:ac:07:84:a7:4f:c3:40:13:8f:66:13:
         e6:1b:f9:cb:d9:77:7b:85:dd:b2:64:cb:27:12:f6:b9:a0:34:
         14:bb:4d:77
-----BEGIN CERTIFICATE-----
MIIDZzCCAk+gAwIBAgIQYZeGJBK2DGhP2PLXKUS8pjANBgkqhkiG9w0BAQsFADAW
MRQwEgYDVQQDDAtFYXN5LVJTQSBDQTAeFw0yMzA1MjUwNzM5MzZaFw0yNTA4Mjcw
NzM5MzZaMBExDzANBgNVBAMMBnNlcnZlcjCCASIwDQYJKoZIhvcNAQEBBQADggEP
ADCCAQoCggEBAJ5QptwzeKv9U3rkvjYxNH30E1VPcWTVJz5sS9XAT1kZUjKUD7Df
4iwraIEheTSDkjoUJkXGy65yh8Hf8QVUzRoM74fie0G0V7eKJICLZcekd/GfVd9+
CMehoJ2AeCT2X9Ae+oAzyB2VvxkDfiCLO+yunZUAYWwX5BDGzJbP1SJCB5GCuuJK
cpvMtqmeUk3GFO7xuv3f8Zgg5RapJyzgZCpUC6l3tqwwOrABJotCe+gkhOgxMarg
AdMee+il69UfHPFkXlJBY7rPHB8WBdhyliDNJf7qoZe0LcMZ1hvvyF/k3M+hT5Ei
DV6/Gm91PA7x4AYmZkSecswcGyAlxaQNxOkCAwEAAaOBtTCBsjAJBgNVHRMEAjAA
MB0GA1UdDgQWBBTYKc5YjNw7cC1eCNLvBcPzqw6W/zBRBgNVHSMESjBIgBSi1/1D
XMTE7mzavUmeflqKXQC4WqEapBgwFjEUMBIGA1UEAwwLRWFzeS1SU0EgQ0GCFFVl
uRBgH+vpnUSCyUDqwHbo15tsMBMGA1UdJQQMMAoGCCsGAQUFBwMBMAsGA1UdDwQE
AwIFoDARBgNVHREECjAIggZzZXJ2ZXIwDQYJKoZIhvcNAQELBQADggEBAK9jJZfU
SjWh+/Rv/D32n8V2gxPX3vx9XUw5bfLqXwGfNY+0zHN9tQeIeuxqpPckVByL8nzY
sQYgqikKEqaGmnuqc1l/SCLQLe2p+baZEMeB26mJpSA1UQFzXkIC3OX+OyJ7HvqR
3M1/vuzbhMlHg2TnFS319Q5qqDDcH7QsaX+MvW2ko/aLtcq6DuqhrlybIMd/tBGR
M8Rt8VzFwU1Zk95Zn3JZfd9wD7hA3bAUADJjCTqGBqKqKPdY42OSf8HvCpKDP9Oe
rmjG+azB+IAJ097SGFrKL0GfUq3F7nGeBIKsB4SnT8NAE49mE+Yb+cvZd3uF3bJk
yycS9rmgNBS7TXc=
-----END CERTIFICATE-----
